target datalayout = "e-m:e-p270:32:32-p271:32:32-p272:64:64-i64:64-i128:128-f80:128-n8:16:32:64-S128"
target triple = "x86_64-pc-linux-gnu"

%struct.stbtt__buf = type { ptr, i32, i32 }
%struct.stbtt_fontinfo = type { ptr, ptr, i32, i32, i32, i32, i32, i32, i32, i32, i32, i32, i32, i32, %struct.stbtt__buf, %struct.stbtt__buf, %struct.stbtt__buf, %struct.stbtt__buf, %struct.stbtt__buf, %struct.stbtt__buf }

; Function Attrs: nounwind uwtable
define { ptr, i64 } @stbtt__new_buf(ptr noundef %0, i64 noundef %1) #0 {
  %3 = alloca %struct.stbtt__buf, align 8
  %4 = alloca ptr, align 8
  %5 = alloca i64, align 8
  store ptr %0, ptr %4, align 8, !tbaa !3
  store i64 %1, ptr %5, align 8, !tbaa !17
  %6 = load ptr, ptr %4, align 8, !tbaa !3
  %7 = getelementptr inbounds nuw %struct.stbtt__buf, ptr %3, i32 0, i32 0
  store ptr %6, ptr %7, align 8, !tbaa !12
  %8 = load i64, ptr %5, align 8, !tbaa !17
  %9 = trunc i64 %8 to i32
  %10 = getelementptr inbounds nuw %struct.stbtt__buf, ptr %3, i32 0, i32 2
  store i32 %9, ptr %10, align 4, !tbaa !11
  %11 = getelementptr inbounds nuw %struct.stbtt__buf, ptr %3, i32 0, i32 1
  store i32 0, ptr %11, align 8, !tbaa !7
  %12 = load { ptr, i64 }, ptr %3, align 8
  ret { ptr, i64 } %12
}

; Function Attrs: nounwind uwtable
define i32 @stbtt__buf_get(ptr noundef %0, i32 noundef %1) #0 {
  %3 = alloca ptr, align 8
  %4 = alloca i32, align 4
  %5 = alloca i32, align 4
  %6 = alloca i32, align 4
  store ptr %0, ptr %3, align 8, !tbaa !3
  store i32 %1, ptr %4, align 4, !tbaa !14
  call void @llvm.lifetime.start.p0(i64 4, ptr %5) #8
  store i32 0, ptr %5, align 4, !tbaa !14
  call void @llvm.lifetime.start.p0(i64 4, ptr %6) #8
  store i32 0, ptr %6, align 4, !tbaa !14
  br label %7

7:                                                ; preds = %18, %2
  %8 = load i32, ptr %6, align 4, !tbaa !14
  %9 = load i32, ptr %4, align 4, !tbaa !14
  %10 = icmp slt i32 %8, %9
  br i1 %10, label %11, label %21

11:                                               ; preds = %7
  %12 = load i32, ptr %5, align 4, !tbaa !14
  %13 = shl i32 %12, 8
  %14 = load ptr, ptr %3, align 8, !tbaa !3
  %15 = call zeroext i8 @stbtt__buf_get8(ptr noundef %14)
  %16 = zext i8 %15 to i32
  %17 = or i32 %13, %16
  store i32 %17, ptr %5, align 4, !tbaa !14
  br label %18

18:                                               ; preds = %11
  %19 = load i32, ptr %6, align 4, !tbaa !14
  %20 = add nsw i32 %19, 1
  store i32 %20, ptr %6, align 4, !tbaa !14
  br label %7, !llvm.loop !15

21:                                               ; preds = %7
  %22 = load i32, ptr %5, align 4, !tbaa !14
  call void @llvm.lifetime.end.p0(i64 4, ptr %6) #8
  call void @llvm.lifetime.end.p0(i64 4, ptr %5) #8
  ret i32 %22
}

; Function Attrs: nounwind uwtable
define void @stbtt__buf_skip(ptr noundef %0, i32 noundef %1) #0 {
  %3 = alloca ptr, align 8
  %4 = alloca i32, align 4
  store ptr %0, ptr %3, align 8, !tbaa !3
  store i32 %1, ptr %4, align 4, !tbaa !14
  %5 = load ptr, ptr %3, align 8, !tbaa !3
  %6 = load ptr, ptr %3, align 8, !tbaa !3
  %7 = getelementptr inbounds nuw %struct.stbtt__buf, ptr %6, i32 0, i32 1
  %8 = load i32, ptr %7, align 8, !tbaa !7
  %9 = load i32, ptr %4, align 4, !tbaa !14
  %10 = add nsw i32 %8, %9
  call void @stbtt__buf_seek(ptr noundef %5, i32 noundef %10)
  ret void
}

; Function Attrs: nounwind uwtable
define zeroext i8 @stbtt__buf_get8(ptr noundef %0) #0 {
  %2 = alloca i8, align 1
  %3 = alloca ptr, align 8
  store ptr %0, ptr %3, align 8, !tbaa !3
  %4 = load ptr, ptr %3, align 8, !tbaa !3
  %5 = getelementptr inbounds nuw %struct.stbtt__buf, ptr %4, i32 0, i32 1
  %6 = load i32, ptr %5, align 8, !tbaa !7
  %7 = load ptr, ptr %3, align 8, !tbaa !3
  %8 = getelementptr inbounds nuw %struct.stbtt__buf, ptr %7, i32 0, i32 2
  %9 = load i32, ptr %8, align 4, !tbaa !11
  %10 = icmp sge i32 %6, %9
  br i1 %10, label %11, label %12

11:                                               ; preds = %1
  store i8 0, ptr %2, align 1
  br label %23

12:                                               ; preds = %1
  %13 = load ptr, ptr %3, align 8, !tbaa !3
  %14 = getelementptr inbounds nuw %struct.stbtt__buf, ptr %13, i32 0, i32 0
  %15 = load ptr, ptr %14, align 8, !tbaa !12
  %16 = load ptr, ptr %3, align 8, !tbaa !3
  %17 = getelementptr inbounds nuw %struct.stbtt__buf, ptr %16, i32 0, i32 1
  %18 = load i32, ptr %17, align 8, !tbaa !7
  %19 = add nsw i32 %18, 1
  store i32 %19, ptr %17, align 8, !tbaa !7
  %20 = sext i32 %18 to i64
  %21 = getelementptr inbounds i8, ptr %15, i64 %20
  %22 = load i8, ptr %21, align 1, !tbaa !13
  store i8 %22, ptr %2, align 1
  br label %23

23:                                               ; preds = %12, %11
  %24 = load i8, ptr %2, align 1
  ret i8 %24
}

; Function Attrs: nounwind uwtable
define void @stbtt__buf_seek(ptr noundef %0, i32 noundef %1) #0 {
  %3 = alloca ptr, align 8
  %4 = alloca i32, align 4
  store ptr %0, ptr %3, align 8, !tbaa !3
  store i32 %1, ptr %4, align 4, !tbaa !14
  %5 = load i32, ptr %4, align 4, !tbaa !14
  %6 = load ptr, ptr %3, align 8, !tbaa !3
  %7 = getelementptr inbounds nuw %struct.stbtt__buf, ptr %6, i32 0, i32 2
  %8 = load i32, ptr %7, align 4, !tbaa !11
  %9 = icmp sgt i32 %5, %8
  br i1 %9, label %13, label %10

10:                                               ; preds = %2
  %11 = load i32, ptr %4, align 4, !tbaa !14
  %12 = icmp slt i32 %11, 0
  br i1 %12, label %13, label %17

13:                                               ; preds = %10, %2
  %14 = load ptr, ptr %3, align 8, !tbaa !3
  %15 = getelementptr inbounds nuw %struct.stbtt__buf, ptr %14, i32 0, i32 2
  %16 = load i32, ptr %15, align 4, !tbaa !11
  br label %19

17:                                               ; preds = %10
  %18 = load i32, ptr %4, align 4, !tbaa !14
  br label %19

19:                                               ; preds = %17, %13
  %20 = phi i32 [ %16, %13 ], [ %18, %17 ]
  %21 = load ptr, ptr %3, align 8, !tbaa !3
  %22 = getelementptr inbounds nuw %struct.stbtt__buf, ptr %21, i32 0, i32 1
  store i32 %20, ptr %22, align 8, !tbaa !7
  ret void
}

; Function Attrs: nounwind uwtable
define { ptr, i64 } @stbtt__cid_get_glyph_subrs(ptr noundef %0, i32 noundef %1) #0 {
  %3 = alloca %struct.stbtt__buf, align 8
  %4 = alloca ptr, align 8
  %5 = alloca i32, align 4
  %6 = alloca %struct.stbtt__buf, align 8
  %7 = alloca i32, align 4
  %8 = alloca i32, align 4
  %9 = alloca i32, align 4
  %10 = alloca i32, align 4
  %11 = alloca i32, align 4
  %12 = alloca i32, align 4
  %13 = alloca i32, align 4
  %14 = alloca %struct.stbtt__buf, align 8
  %15 = alloca %struct.stbtt__buf, align 8
  store ptr %0, ptr %4, align 8, !tbaa !28
  store i32 %1, ptr %5, align 4, !tbaa !14
  call void @llvm.lifetime.start.p0(i64 16, ptr %6) #8
  %16 = load ptr, ptr %4, align 8, !tbaa !28
  %17 = getelementptr inbounds nuw %struct.stbtt_fontinfo, ptr %16, i32 0, i32 19
  call void @llvm.memcpy.p0.p0.i64(ptr align 8 %6, ptr align 8 %17, i64 16, i1 false), !tbaa.struct !27
  call void @llvm.lifetime.start.p0(i64 4, ptr %7) #8
  call void @llvm.lifetime.start.p0(i64 4, ptr %8) #8
  call void @llvm.lifetime.start.p0(i64 4, ptr %9) #8
  call void @llvm.lifetime.start.p0(i64 4, ptr %10) #8
  call void @llvm.lifetime.start.p0(i64 4, ptr %11) #8
  call void @llvm.lifetime.start.p0(i64 4, ptr %12) #8
  store i32 -1, ptr %12, align 4, !tbaa !14
  call void @llvm.lifetime.start.p0(i64 4, ptr %13) #8
  call void @stbtt__buf_seek(ptr noundef %6, i32 noundef 0)
  %18 = call zeroext i8 @stbtt__buf_get8(ptr noundef %6)
  %19 = zext i8 %18 to i32
  store i32 %19, ptr %11, align 4, !tbaa !14
  %20 = load i32, ptr %11, align 4, !tbaa !14
  %21 = icmp eq i32 %20, 0
  br i1 %21, label %22, label %26

22:                                               ; preds = %2
  %23 = load i32, ptr %5, align 4, !tbaa !14
  call void @stbtt__buf_skip(ptr noundef %6, i32 noundef %23)
  %24 = call zeroext i8 @stbtt__buf_get8(ptr noundef %6)
  %25 = zext i8 %24 to i32
  store i32 %25, ptr %12, align 4, !tbaa !14
  br label %56

26:                                               ; preds = %2
  %27 = load i32, ptr %11, align 4, !tbaa !14
  %28 = icmp eq i32 %27, 3
  br i1 %28, label %29, label %55

29:                                               ; preds = %26
  %30 = call i32 @stbtt__buf_get(ptr noundef %6, i32 noundef 2)
  store i32 %30, ptr %7, align 4, !tbaa !14
  %31 = call i32 @stbtt__buf_get(ptr noundef %6, i32 noundef 2)
  store i32 %31, ptr %8, align 4, !tbaa !14
  store i32 0, ptr %13, align 4, !tbaa !14
  br label %32

32:                                               ; preds = %51, %29
  %33 = load i32, ptr %13, align 4, !tbaa !14
  %34 = load i32, ptr %7, align 4, !tbaa !14
  %35 = icmp slt i32 %33, %34
  br i1 %35, label %36, label %54

36:                                               ; preds = %32
  %37 = call zeroext i8 @stbtt__buf_get8(ptr noundef %6)
  %38 = zext i8 %37 to i32
  store i32 %38, ptr %10, align 4, !tbaa !14
  %39 = call i32 @stbtt__buf_get(ptr noundef %6, i32 noundef 2)
  store i32 %39, ptr %9, align 4, !tbaa !14
  %40 = load i32, ptr %5, align 4, !tbaa !14
  %41 = load i32, ptr %8, align 4, !tbaa !14
  %42 = icmp sge i32 %40, %41
  br i1 %42, label %43, label %49

43:                                               ; preds = %36
  %44 = load i32, ptr %5, align 4, !tbaa !14
  %45 = load i32, ptr %9, align 4, !tbaa !14
  %46 = icmp slt i32 %44, %45
  br i1 %46, label %47, label %49

47:                                               ; preds = %43
  %48 = load i32, ptr %10, align 4, !tbaa !14
  store i32 %48, ptr %12, align 4, !tbaa !14
  br label %54

49:                                               ; preds = %43, %36
  %50 = load i32, ptr %9, align 4, !tbaa !14
  store i32 %50, ptr %8, align 4, !tbaa !14
  br label %51

51:                                               ; preds = %49
  %52 = load i32, ptr %13, align 4, !tbaa !14
  %53 = add nsw i32 %52, 1
  store i32 %53, ptr %13, align 4, !tbaa !14
  br label %32, !llvm.loop !79

54:                                               ; preds = %47, %32
  br label %55

55:                                               ; preds = %54, %26
  br label %56

56:                                               ; preds = %55, %22
  %57 = load i32, ptr %12, align 4, !tbaa !14
  %58 = icmp eq i32 %57, -1
  br i1 %58, label %59, label %65

59:                                               ; preds = %56
  %60 = call { ptr, i64 } @stbtt__new_buf(ptr noundef null, i64 noundef 0)
  %61 = getelementptr inbounds nuw { ptr, i64 }, ptr %14, i32 0, i32 0
  %62 = extractvalue { ptr, i64 } %60, 0
  store ptr %62, ptr %61, align 8
  %63 = getelementptr inbounds nuw { ptr, i64 }, ptr %14, i32 0, i32 1
  %64 = extractvalue { ptr, i64 } %60, 1
  store i64 %64, ptr %63, align 8
  br label %65

65:                                               ; preds = %59, %56
  %66 = load ptr, ptr %4, align 8, !tbaa !28
  %67 = getelementptr inbounds nuw %struct.stbtt_fontinfo, ptr %66, i32 0, i32 14
  %68 = load ptr, ptr %4, align 8, !tbaa !28
  %69 = getelementptr inbounds nuw %struct.stbtt_fontinfo, ptr %68, i32 0, i32 18
  %70 = load i32, ptr %12, align 4, !tbaa !14
  %71 = getelementptr inbounds nuw { ptr, i64 }, ptr %69, i32 0, i32 0
  %72 = load ptr, ptr %71, align 8
  %73 = getelementptr inbounds nuw { ptr, i64 }, ptr %69, i32 0, i32 1
  %74 = load i64, ptr %73, align 8
  %75 = call { ptr, i64 } @stbtt__cff_index_get(ptr %72, i64 %74, i32 noundef %70)
  %76 = getelementptr inbounds nuw { ptr, i64 }, ptr %15, i32 0, i32 0
  %77 = extractvalue { ptr, i64 } %75, 0
  store ptr %77, ptr %76, align 8
  %78 = getelementptr inbounds nuw { ptr, i64 }, ptr %15, i32 0, i32 1
  %79 = extractvalue { ptr, i64 } %75, 1
  store i64 %79, ptr %78, align 8
  %80 = getelementptr inbounds nuw { ptr, i64 }, ptr %67, i32 0, i32 0
  %81 = load ptr, ptr %80, align 8
  %82 = getelementptr inbounds nuw { ptr, i64 }, ptr %67, i32 0, i32 1
  %83 = load i64, ptr %82, align 8
  %84 = getelementptr inbounds nuw { ptr, i64 }, ptr %15, i32 0, i32 0
  %85 = load ptr, ptr %84, align 8
  %86 = getelementptr inbounds nuw { ptr, i64 }, ptr %15, i32 0, i32 1
  %87 = load i64, ptr %86, align 8
  %88 = call { ptr, i64 } @stbtt__get_subrs(ptr %81, i64 %83, ptr %85, i64 %87)
  %89 = getelementptr inbounds nuw { ptr, i64 }, ptr %3, i32 0, i32 0
  %90 = extractvalue { ptr, i64 } %88, 0
  store ptr %90, ptr %89, align 8
  %91 = getelementptr inbounds nuw { ptr, i64 }, ptr %3, i32 0, i32 1
  %92 = extractvalue { ptr, i64 } %88, 1
  store i64 %92, ptr %91, align 8
  call void @llvm.lifetime.end.p0(i64 4, ptr %13) #8
  call void @llvm.lifetime.end.p0(i64 4, ptr %12) #8
  call void @llvm.lifetime.end.p0(i64 4, ptr %11) #8
  call void @llvm.lifetime.end.p0(i64 4, ptr %10) #8
  call void @llvm.lifetime.end.p0(i64 4, ptr %9) #8
  call void @llvm.lifetime.end.p0(i64 4, ptr %8) #8
  call void @llvm.lifetime.end.p0(i64 4, ptr %7) #8
  call void @llvm.lifetime.end.p0(i64 16, ptr %6) #8
  %93 = load { ptr, i64 }, ptr %3, align 8
  ret { ptr, i64 } %93
}