; Function Attrs: nofree norecurse nosync nounwind memory(read, inaccessiblemem: none) uwtable
define { ptr, i64 } @stbtt__cid_get_glyph_subrs(ptr noundef readonly captures(none) %0, i32 noundef %1) local_unnamed_addr #8 {
  %3 = getelementptr inbounds nuw i8, ptr %0, i64 144
  %.sroa.0.0.copyload = load ptr, ptr %3, align 8, !tbaa !20
  %.sroa.24.0..sroa_idx = getelementptr inbounds nuw i8, ptr %0, i64 156
  %.sroa.24.0.copyload = load i32, ptr %.sroa.24.0..sroa_idx, align 4, !tbaa !17
  %4 = tail call i32 @llvm.smin.i32(i32 %.sroa.24.0.copyload, i32 0)
  %.not.i = icmp sgt i32 %.sroa.24.0.copyload, 0
  br i1 %.not.i, label %stbtt__buf_get8.exit, label %stbtt__buf_get8.exit.thread

stbtt__buf_get8.exit:                             ; preds = %2
  %5 = zext nneg i32 %4 to i64
  %6 = getelementptr inbounds nuw i8, ptr %.sroa.0.0.copyload, i64 %5
  %7 = load i8, ptr %6, align 1, !tbaa !12
  switch i8 %7, label %.split [
    i8 0, label %stbtt__buf_get8.exit.thread
    i8 3, label %.preheader
  ]

stbtt__buf_get8.exit.thread:                      ; preds = %2, %stbtt__buf_get8.exit
  %.sroa.9.164 = phi i32 [ 1, %stbtt__buf_get8.exit ], [ %4, %2 ]
  %8 = add nsw i32 %.sroa.9.164, %1
  %9 = icmp slt i32 %8, 0
  %10 = tail call i32 @llvm.smin.i32(i32 %8, i32 %.sroa.24.0.copyload)
  %..i.i = select i1 %9, i32 %.sroa.24.0.copyload, i32 %10
  %.not.i25 = icmp slt i32 %..i.i, %.sroa.24.0.copyload
  br i1 %.not.i25, label %11, label %.split

11:                                               ; preds = %stbtt__buf_get8.exit.thread
  %12 = sext i32 %..i.i to i64
  %13 = getelementptr inbounds i8, ptr %.sroa.0.0.copyload, i64 %12
  %14 = load i8, ptr %13, align 1, !tbaa !12
  %15 = zext i8 %14 to i32
  br label %.split

.preheader:                                       ; preds = %stbtt__buf_get8.exit, %stbtt__buf_get8.exit.i
  %.sroa.9.2 = phi i32 [ %.sroa.9.3, %stbtt__buf_get8.exit.i ], [ 1, %stbtt__buf_get8.exit ]
  %16 = phi i32 [ %24, %stbtt__buf_get8.exit.i ], [ 1, %stbtt__buf_get8.exit ]
  %.07.i = phi i32 [ %26, %stbtt__buf_get8.exit.i ], [ 0, %stbtt__buf_get8.exit ]
  %.056.i = phi i32 [ %25, %stbtt__buf_get8.exit.i ], [ 0, %stbtt__buf_get8.exit ]
  %17 = shl i32 %.056.i, 8
  %.not.i.i = icmp slt i32 %16, %.sroa.24.0.copyload
  br i1 %.not.i.i, label %18, label %stbtt__buf_get8.exit.i

18:                                               ; preds = %.preheader
  %19 = add nsw i32 %16, 1
  %20 = sext i32 %16 to i64
  %21 = getelementptr inbounds i8, ptr %.sroa.0.0.copyload, i64 %20
  %22 = load i8, ptr %21, align 1, !tbaa !12
  %23 = zext i8 %22 to i32
  br label %stbtt__buf_get8.exit.i

stbtt__buf_get8.exit.i:                           ; preds = %18, %.preheader
  %.sroa.9.3 = phi i32 [ %19, %18 ], [ %.sroa.9.2, %.preheader ]
  %24 = phi i32 [ %19, %18 ], [ %16, %.preheader ]
  %.0.i.i = phi i32 [ %23, %18 ], [ 0, %.preheader ]
  %25 = or disjoint i32 %.0.i.i, %17
  %26 = add nuw nsw i32 %.07.i, 1
  %exitcond.not.i = icmp eq i32 %26, 2
  br i1 %exitcond.not.i, label %stbtt__buf_get.exit, label %.preheader, !llvm.loop !13

stbtt__buf_get.exit:                              ; preds = %stbtt__buf_get8.exit.i, %stbtt__buf_get8.exit.i32
  %.sroa.9.4 = phi i32 [ %.sroa.9.5, %stbtt__buf_get8.exit.i32 ], [ %.sroa.9.3, %stbtt__buf_get8.exit.i ]
  %27 = phi i32 [ %35, %stbtt__buf_get8.exit.i32 ], [ %.sroa.9.3, %stbtt__buf_get8.exit.i ]
  %.07.i29 = phi i32 [ %37, %stbtt__buf_get8.exit.i32 ], [ 0, %stbtt__buf_get8.exit.i ]
  %.056.i30 = phi i32 [ %36, %stbtt__buf_get8.exit.i32 ], [ 0, %stbtt__buf_get8.exit.i ]
  %28 = shl i32 %.056.i30, 8
  %.not.i.i31 = icmp slt i32 %27, %.sroa.24.0.copyload
  br i1 %.not.i.i31, label %29, label %stbtt__buf_get8.exit.i32

29:                                               ; preds = %stbtt__buf_get.exit
  %30 = add nsw i32 %27, 1
  %31 = sext i32 %27 to i64
  %32 = getelementptr inbounds i8, ptr %.sroa.0.0.copyload, i64 %31
  %33 = load i8, ptr %32, align 1, !tbaa !12
  %34 = zext i8 %33 to i32
  br label %stbtt__buf_get8.exit.i32

stbtt__buf_get8.exit.i32:                         ; preds = %29, %stbtt__buf_get.exit
  %.sroa.9.5 = phi i32 [ %30, %29 ], [ %.sroa.9.4, %stbtt__buf_get.exit ]
  %35 = phi i32 [ %30, %29 ], [ %27, %stbtt__buf_get.exit ]
  %.0.i.i33 = phi i32 [ %34, %29 ], [ 0, %stbtt__buf_get.exit ]
  %36 = or disjoint i32 %.0.i.i33, %28
  %37 = add nuw nsw i32 %.07.i29, 1
  %exitcond.not.i34 = icmp eq i32 %37, 2
  br i1 %exitcond.not.i34, label %stbtt__buf_get.exit35.preheader, label %stbtt__buf_get.exit, !llvm.loop !13

stbtt__buf_get.exit35.preheader:                  ; preds = %stbtt__buf_get8.exit.i32
  %38 = icmp sgt i32 %25, 0
  br i1 %38, label %.lr.ph.preheader, label %.split

.lr.ph.preheader:                                 ; preds = %stbtt__buf_get.exit35.preheader
  %39 = or disjoint i32 %.0.i.i, %17
  br label %.lr.ph

stbtt__buf_get.exit35:                            ; preds = %stbtt__buf_get.exit46
  %40 = add nuw nsw i32 %.02069, 1
  %exitcond.not = icmp eq i32 %40, %39
  br i1 %exitcond.not, label %.split, label %.lr.ph, !llvm.loop !70

.lr.ph:                                           ; preds = %.lr.ph.preheader, %stbtt__buf_get.exit35
  %.070 = phi i32 [ %57, %stbtt__buf_get.exit35 ], [ %36, %.lr.ph.preheader ]
  %.02069 = phi i32 [ %40, %stbtt__buf_get.exit35 ], [ 0, %.lr.ph.preheader ]
  %.sroa.9.068 = phi i32 [ %.sroa.9.8, %stbtt__buf_get.exit35 ], [ %.sroa.9.5, %.lr.ph.preheader ]
  %.not.i36 = icmp slt i32 %.sroa.9.068, %.sroa.24.0.copyload
  br i1 %.not.i36, label %41, label %stbtt__buf_get8.exit38

41:                                               ; preds = %.lr.ph
  %42 = add nsw i32 %.sroa.9.068, 1
  %43 = sext i32 %.sroa.9.068 to i64
  %44 = getelementptr inbounds i8, ptr %.sroa.0.0.copyload, i64 %43
  %45 = load i8, ptr %44, align 1, !tbaa !12
  %46 = zext i8 %45 to i32
  br label %stbtt__buf_get8.exit38

stbtt__buf_get8.exit38:                           ; preds = %.lr.ph, %41
  %.sroa.9.6 = phi i32 [ %42, %41 ], [ %.sroa.9.068, %.lr.ph ]
  %.0.i37 = phi i32 [ %46, %41 ], [ 0, %.lr.ph ]
  br label %47

47:                                               ; preds = %stbtt__buf_get8.exit.i43, %stbtt__buf_get8.exit38
  %.sroa.9.7 = phi i32 [ %.sroa.9.6, %stbtt__buf_get8.exit38 ], [ %.sroa.9.8, %stbtt__buf_get8.exit.i43 ]
  %48 = phi i32 [ %.sroa.9.6, %stbtt__buf_get8.exit38 ], [ %56, %stbtt__buf_get8.exit.i43 ]
  %.07.i40 = phi i32 [ 0, %stbtt__buf_get8.exit38 ], [ %58, %stbtt__buf_get8.exit.i43 ]
  %.056.i41 = phi i32 [ 0, %stbtt__buf_get8.exit38 ], [ %57, %stbtt__buf_get8.exit.i43 ]
  %49 = shl i32 %.056.i41, 8
  %.not.i.i42 = icmp slt i32 %48, %.sroa.24.0.copyload
  br i1 %.not.i.i42, label %50, label %stbtt__buf_get8.exit.i43

50:                                               ; preds = %47
  %51 = add nsw i32 %48, 1
  %52 = sext i32 %48 to i64
  %53 = getelementptr inbounds i8, ptr %.sroa.0.0.copyload, i64 %52
  %54 = load i8, ptr %53, align 1, !tbaa !12
  %55 = zext i8 %54 to i32
  br label %stbtt__buf_get8.exit.i43

stbtt__buf_get8.exit.i43:                         ; preds = %50, %47
  %.sroa.9.8 = phi i32 [ %51, %50 ], [ %.sroa.9.7, %47 ]
  %56 = phi i32 [ %51, %50 ], [ %48, %47 ]
  %.0.i.i44 = phi i32 [ %55, %50 ], [ 0, %47 ]
  %57 = or disjoint i32 %.0.i.i44, %49
  %58 = add nuw nsw i32 %.07.i40, 1
  %exitcond.not.i45 = icmp eq i32 %58, 2
  br i1 %exitcond.not.i45, label %stbtt__buf_get.exit46, label %47, !llvm.loop !13

stbtt__buf_get.exit46:                            ; preds = %stbtt__buf_get8.exit.i43
  %.not = icmp sge i32 %1, %.070
  %59 = icmp slt i32 %1, %57
  %or.cond = select i1 %.not, i1 %59, i1 false
  br i1 %or.cond, label %.split, label %stbtt__buf_get.exit35

.split:                                           ; preds = %stbtt__buf_get.exit35, %stbtt__buf_get.exit46, %stbtt__buf_get8.exit, %stbtt__buf_get.exit35.preheader, %stbtt__buf_get8.exit.thread, %11
  %.019.sink = phi i32 [ %15, %11 ], [ 0, %stbtt__buf_get8.exit.thread ], [ -1, %stbtt__buf_get.exit35.preheader ], [ -1, %stbtt__buf_get8.exit ], [ %.0.i37, %stbtt__buf_get.exit46 ], [ -1, %stbtt__buf_get.exit35 ]
  %60 = getelementptr inbounds nuw i8, ptr %0, i64 128
  %61 = load ptr, ptr %60, align 8
  %62 = getelementptr inbounds nuw i8, ptr %0, i64 136
  %63 = load i64, ptr %62, align 8
  %64 = tail call { ptr, i64 } @stbtt__cff_index_get(ptr %61, i64 %63, i32 noundef %.019.sink)
  %65 = getelementptr inbounds nuw i8, ptr %0, i64 64
  %66 = extractvalue { ptr, i64 } %64, 0
  %67 = extractvalue { ptr, i64 } %64, 1
  %68 = load ptr, ptr %65, align 8
  %69 = getelementptr inbounds nuw i8, ptr %0, i64 72
  %70 = load i64, ptr %69, align 8
  %71 = tail call { ptr, i64 } @stbtt__get_subrs(ptr %68, i64 %70, ptr %66, i64 %67)
  ret { ptr, i64 } %71
}